target datalayout = "e-m:e-p270:32:32-p271:32:32-p272:64:64-i64:64-i128:128-f80:128-n8:16:32:64-S128"
target triple = "x86_64-pc-linux-gnu"

@.str.19 = private unnamed_addr constant [10 x i8] c"PRAGMA %s\00", align 1

; Function Attrs: nounwind uwtable
define i32 @_get_pragma_int_val(ptr noundef %0, ptr noundef %1) #0 {
  %3 = alloca ptr, align 8
  %4 = alloca ptr, align 8
  %5 = alloca ptr, align 8
  %6 = alloca i32, align 4
  %7 = alloca ptr, align 8
  %8 = alloca i32, align 4
  store ptr %0, ptr %3, align 8, !tbaa !63
  store ptr %1, ptr %4, align 8, !tbaa !18
  call void @llvm.lifetime.start.p0(i64 8, ptr %5) #13
  %9 = load ptr, ptr %4, align 8, !tbaa !18
  %10 = call noalias ptr (ptr, ...) @g_strdup_printf(ptr noundef @.str.19, ptr noundef %9)
  store ptr %10, ptr %5, align 8, !tbaa !18
  call void @llvm.lifetime.start.p0(i64 4, ptr %6) #13
  store i32 -1, ptr %6, align 4, !tbaa !21
  call void @llvm.lifetime.start.p0(i64 8, ptr %7) #13
  call void @llvm.lifetime.start.p0(i64 4, ptr %8) #13
  %11 = load ptr, ptr %3, align 8, !tbaa !63
  %12 = load ptr, ptr %5, align 8, !tbaa !18
  %13 = call i32 @sqlite3_prepare_v2(ptr noundef %11, ptr noundef %12, i32 noundef -1, ptr noundef %7, ptr noundef null)
  store i32 %13, ptr %8, align 4, !tbaa !21
  %14 = load i32, ptr %8, align 4, !tbaa !21
  %15 = icmp eq i32 %14, 0
  br i1 %15, label %16, label %23

16:                                               ; preds = %2
  %17 = load ptr, ptr %7, align 8, !tbaa !64
  %18 = call i32 @sqlite3_step(ptr noundef %17)
  %19 = icmp eq i32 %18, 100
  br i1 %19, label %20, label %23

20:                                               ; preds = %16
  %21 = load ptr, ptr %7, align 8, !tbaa !64
  %22 = call i32 @sqlite3_column_int(ptr noundef %21, i32 noundef 0)
  store i32 %22, ptr %6, align 4, !tbaa !21
  br label %23

23:                                               ; preds = %20, %16, %2
  %24 = load ptr, ptr %7, align 8, !tbaa !64
  %25 = call i32 @sqlite3_finalize(ptr noundef %24)
  %26 = load ptr, ptr %5, align 8, !tbaa !18
  call void @g_free(ptr noundef %26)
  %27 = load i32, ptr %6, align 4, !tbaa !21
  call void @llvm.lifetime.end.p0(i64 4, ptr %8) #13
  call void @llvm.lifetime.end.p0(i64 8, ptr %7) #13
  call void @llvm.lifetime.end.p0(i64 4, ptr %6) #13
  call void @llvm.lifetime.end.p0(i64 8, ptr %5) #13
  ret i32 %27
}