; Function Attrs: nounwind uwtable
define i32 @_get_pragma_int_val(ptr noundef %0, ptr noundef %1) local_unnamed_addr #0 {
  %3 = alloca ptr, align 8
  %4 = tail call noalias ptr (ptr, ...) @g_strdup_printf(ptr noundef nonnull @.str.19, ptr noundef %1) #18
  call void @llvm.lifetime.start.p0(i64 8, ptr nonnull %3) #18
  %5 = call i32 @sqlite3_prepare_v2(ptr noundef %0, ptr noundef %4, i32 noundef -1, ptr noundef nonnull %3, ptr noundef null) #18
  %6 = icmp eq i32 %5, 0
  br i1 %6, label %7, label %14

7:                                                ; preds = %2
  %8 = load ptr, ptr %3, align 8, !tbaa !21
  %9 = call i32 @sqlite3_step(ptr noundef %8) #18
  %10 = icmp eq i32 %9, 100
  br i1 %10, label %11, label %14

11:                                               ; preds = %7
  %12 = load ptr, ptr %3, align 8, !tbaa !21
  %13 = call i32 @sqlite3_column_int(ptr noundef %12, i32 noundef 0) #18
  br label %14

14:                                               ; preds = %11, %7, %2
  %.0 = phi i32 [ %13, %11 ], [ -1, %7 ], [ -1, %2 ]
  %15 = load ptr, ptr %3, align 8, !tbaa !21
  %16 = call i32 @sqlite3_finalize(ptr noundef %15) #18
  call void @g_free(ptr noundef %4) #18
  call void @llvm.lifetime.end.p0(i64 8, ptr nonnull %3) #18
  ret i32 %.0
}